; Function Attrs: mustprogress uwtable
define hidden void @_ZN2cv4face15FacemarkLBFImpl10RandomTree8initTreeEiiSt6vectorIiSaIiEES3_IdSaIdEE(ptr noundef nonnull align 8 dereferenceable(184) initializes((0, 12)) %0, i32 noundef %1, i32 noundef %2, ptr noundef %3, ptr noundef %4) local_unnamed_addr #3 align 2 personality ptr @__gxx_personality_v0 {
  %6 = alloca %"class.cv::MatExpr", align 8
  %7 = getelementptr inbounds nuw i8, ptr %0, i64 8
  store i32 %1, ptr %7, align 8, !tbaa !429
  store i32 %2, ptr %0, align 8, !tbaa !432
  %8 = shl nuw i32 1, %2
  %9 = getelementptr inbounds nuw i8, ptr %0, i64 4
  store i32 %8, ptr %9, align 4, !tbaa !433
  call void @llvm.lifetime.start.p0(i64 352, ptr nonnull %6) #31
  call void @_ZN2cv3Mat5zerosEiii(ptr dead_on_unwind nonnull writable sret(%"class.cv::MatExpr") align 8 %6, i32 noundef %8, i32 noundef 4, i32 noundef 6)
  %10 = getelementptr inbounds nuw i8, ptr %0, i64 16
  %11 = load ptr, ptr %6, align 8, !tbaa !184
  %12 = load ptr, ptr %11, align 8, !tbaa !54
  %13 = getelementptr inbounds nuw i8, ptr %12, i64 24
  %14 = load ptr, ptr %13, align 8
  invoke void %14(ptr noundef nonnull align 8 dereferenceable(8) %11, ptr noundef nonnull align 8 dereferenceable(352) %6, ptr noundef nonnull align 8 dereferenceable(96) %10, i32 noundef 6)
          to label %_ZN2cv4Mat_IdEaSERKNS_7MatExprE.exit unwind label %40

_ZN2cv4Mat_IdEaSERKNS_7MatExprE.exit:             ; preds = %5
  %15 = getelementptr inbounds nuw i8, ptr %6, i64 208
  call void @_ZN2cv3MatD1Ev(ptr noundef nonnull align 8 dereferenceable(96) %15) #31
  %16 = getelementptr inbounds nuw i8, ptr %6, i64 112
  call void @_ZN2cv3MatD1Ev(ptr noundef nonnull align 8 dereferenceable(96) %16) #31
  %17 = getelementptr inbounds nuw i8, ptr %6, i64 16
  call void @_ZN2cv3MatD1Ev(ptr noundef nonnull align 8 dereferenceable(96) %17) #31
  call void @llvm.lifetime.end.p0(i64 352, ptr nonnull %6) #31
  %18 = getelementptr inbounds nuw i8, ptr %0, i64 112
  %19 = load i32, ptr %9, align 4, !tbaa !433
  %20 = sext i32 %19 to i64
  %21 = getelementptr inbounds nuw i8, ptr %0, i64 120
  %22 = load ptr, ptr %21, align 8, !tbaa !38
  %23 = load ptr, ptr %18, align 8, !tbaa !41
  %24 = ptrtoint ptr %22 to i64
  %25 = ptrtoint ptr %23 to i64
  %26 = sub i64 %24, %25
  %27 = ashr exact i64 %26, 2
  %28 = icmp ult i64 %27, %20
  br i1 %28, label %29, label %31

29:                                               ; preds = %_ZN2cv4Mat_IdEaSERKNS_7MatExprE.exit
  %30 = sub nuw nsw i64 %20, %27
  call void @_ZNSt6vectorIiSaIiEE17_M_default_appendEm(ptr noundef nonnull align 8 dereferenceable(24) %18, i64 noundef %30)
  br label %_ZNSt6vectorIiSaIiEE6resizeEm.exit

31:                                               ; preds = %_ZN2cv4Mat_IdEaSERKNS_7MatExprE.exit
  %32 = icmp ugt i64 %27, %20
  br i1 %32, label %33, label %_ZNSt6vectorIiSaIiEE6resizeEm.exit

33:                                               ; preds = %31
  %34 = getelementptr inbounds nuw i32, ptr %23, i64 %20
  %.not.i.i = icmp eq ptr %22, %34
  br i1 %.not.i.i, label %_ZNSt6vectorIiSaIiEE6resizeEm.exit, label %35

35:                                               ; preds = %33
  store ptr %34, ptr %21, align 8, !tbaa !38
  br label %_ZNSt6vectorIiSaIiEE6resizeEm.exit

_ZNSt6vectorIiSaIiEE6resizeEm.exit:               ; preds = %29, %31, %33, %35
  %36 = getelementptr inbounds nuw i8, ptr %0, i64 136
  %37 = call noundef nonnull align 8 dereferenceable(24) ptr @_ZNSt6vectorIiSaIiEEaSERKS1_(ptr noundef nonnull align 8 dereferenceable(24) %36, ptr noundef nonnull align 8 dereferenceable(24) %3)
  %38 = getelementptr inbounds nuw i8, ptr %0, i64 160
  %39 = call noundef nonnull align 8 dereferenceable(24) ptr @_ZNSt6vectorIdSaIdEEaSERKS1_(ptr noundef nonnull align 8 dereferenceable(24) %38, ptr noundef nonnull align 8 dereferenceable(24) %4)
  ret void

40:                                               ; preds = %5
  %41 = landingpad { ptr, i32 }
          cleanup
  call void @_ZN2cv7MatExprD2Ev(ptr noundef nonnull align 8 dereferenceable(352) %6) #31
  call void @llvm.lifetime.end.p0(i64 352, ptr nonnull %6) #31
  resume { ptr, i32 } %41
}